; Function Attrs: mustprogress uwtable
define void @_ZNK3re212RegexpStatus4TextB5cxx11Ev(ptr noalias sret(%"class.std::__cxx11::basic_string") align 8 %agg.result, ptr nocapture noundef nonnull readonly align 8 dereferenceable(32) %this) local_unnamed_addr #7 align 2 personality ptr @__gxx_personality_v0 {
entry:
  %ref.tmp = alloca %"class.std::__cxx11::basic_string", align 8
  %error_arg_ = getelementptr inbounds i8, ptr %this, i64 8
  %length_.i = getelementptr inbounds i8, ptr %this, i64 16
  %0 = load i64, ptr %length_.i, align 8
  %cmp.i = icmp eq i64 %0, 0
  br i1 %cmp.i, label %if.then, label %if.end

if.then:                                          ; preds = %entry
  %1 = load i32, ptr %this, align 8
  tail call void @_ZN3re212RegexpStatus8CodeTextB5cxx11ENS_16RegexpStatusCodeE(ptr sret(%"class.std::__cxx11::basic_string") align 8 %agg.result, i32 noundef %1)
  br label %return

if.end:                                           ; preds = %entry
  tail call void @_ZNSt7__cxx1112basic_stringIcSt11char_traitsIcESaIcEEC1Ev(ptr noundef nonnull align 8 dereferenceable(32) %agg.result) #25
  %2 = load i32, ptr %this, align 8
  invoke void @_ZN3re212RegexpStatus8CodeTextB5cxx11ENS_16RegexpStatusCodeE(ptr nonnull sret(%"class.std::__cxx11::basic_string") align 8 %ref.tmp, i32 noundef %2)
          to label %invoke.cont unwind label %lpad

invoke.cont:                                      ; preds = %if.end
  %call5 = invoke noundef nonnull align 8 dereferenceable(32) ptr @_ZNSt7__cxx1112basic_stringIcSt11char_traitsIcESaIcEE6appendERKS4_(ptr noundef nonnull align 8 dereferenceable(32) %agg.result, ptr noundef nonnull align 8 dereferenceable(32) %ref.tmp)
          to label %invoke.cont4 unwind label %lpad3

invoke.cont4:                                     ; preds = %invoke.cont
  call void @_ZNSt7__cxx1112basic_stringIcSt11char_traitsIcESaIcEED1Ev(ptr noundef nonnull align 8 dereferenceable(32) %ref.tmp) #25
  %call7 = invoke noundef nonnull align 8 dereferenceable(32) ptr @_ZNSt7__cxx1112basic_stringIcSt11char_traitsIcESaIcEE6appendEPKc(ptr noundef nonnull align 8 dereferenceable(32) %agg.result, ptr noundef nonnull @.str.3)
          to label %invoke.cont6 unwind label %lpad

invoke.cont6:                                     ; preds = %invoke.cont4
  %3 = load ptr, ptr %error_arg_, align 8
  %4 = load i64, ptr %length_.i, align 8
  %call13 = invoke noundef nonnull align 8 dereferenceable(32) ptr @_ZNSt7__cxx1112basic_stringIcSt11char_traitsIcESaIcEE6appendEPKcm(ptr noundef nonnull align 8 dereferenceable(32) %agg.result, ptr noundef %3, i64 noundef %4)
          to label %return unwind label %lpad

lpad:                                             ; preds = %invoke.cont6, %invoke.cont4, %if.end
  %5 = landingpad { ptr, i32 }
          cleanup
  br label %ehcleanup

lpad3:                                            ; preds = %invoke.cont
  %6 = landingpad { ptr, i32 }
          cleanup
  call void @_ZNSt7__cxx1112basic_stringIcSt11char_traitsIcESaIcEED1Ev(ptr noundef nonnull align 8 dereferenceable(32) %ref.tmp) #25
  br label %ehcleanup

ehcleanup:                                        ; preds = %lpad3, %lpad
  %.pn = phi { ptr, i32 } [ %5, %lpad ], [ %6, %lpad3 ]
  call void @_ZNSt7__cxx1112basic_stringIcSt11char_traitsIcESaIcEED1Ev(ptr noundef nonnull align 8 dereferenceable(32) %agg.result) #25
  resume { ptr, i32 } %.pn

return:                                           ; preds = %invoke.cont6, %if.then
  ret void
}